target datalayout = "e-m:e-p270:32:32-p271:32:32-p272:64:64-i64:64-i128:128-f80:128-n8:16:32:64-S128"
target triple = "x86_64-pc-linux-gnu"

%struct.b2Vec2 = type { float, float }
%struct.b2AABB = type { %struct.b2Vec2, %struct.b2Vec2 }
%struct.b2BodyId = type { i32, i16, i16 }
%class.Sample = type { ptr, ptr, ptr, ptr, i32, i32, %struct.b2BodyId, i32, %struct.b2WorldId, %struct.b2JointId, i32, i32, %struct.b2Profile, %struct.b2Profile }
%struct.b2WorldId = type { i16, i16 }
%struct.b2JointId = type { i32, i16, i16 }
%struct.b2Profile = type { float, float, float, float, float, float, float, float, float, float, float, float, float, float, float, float, float, float, float, float, float, float }
%class.DynamicTree = type <{ %class.Sample, %struct.b2DynamicTree, i32, i32, ptr, ptr, i32, i32, i32, i32, i32, float, float, float, float, float, %struct.b2Vec2, %struct.b2Vec2, i8, i8, i8, [5 x i8] }>
%struct.b2DynamicTree = type { ptr, i32, i32, i32, i32, i32, ptr, ptr, ptr, ptr, i32 }
%struct.Proxy = type { %struct.b2AABB, %struct.b2AABB, %struct.b2Vec2, %struct.b2Vec2, i32, i32, i32, i8 }
%struct.b2RayCastInput = type { %struct.b2Vec2, %struct.b2Vec2, float }

; Function Attrs: mustprogress nounwind uwtable
define internal noundef float @_ZL11RayCallbackPK14b2RayCastInputiiPv(ptr noundef %0, i32 noundef %1, i32 noundef %2, ptr noundef %3) #7 {
  %5 = alloca ptr, align 8
  %6 = alloca i32, align 4
  %7 = alloca i32, align 4
  %8 = alloca ptr, align 8
  %9 = alloca ptr, align 8
  %10 = alloca ptr, align 8
  store ptr %0, ptr %5, align 8, !tbaa !179
  store i32 %1, ptr %6, align 4, !tbaa !4
  store i32 %2, ptr %7, align 4, !tbaa !4
  store ptr %3, ptr %8, align 8, !tbaa !178
  call void @llvm.lifetime.start.p0(i64 8, ptr %9) #21
  %11 = load ptr, ptr %8, align 8, !tbaa !178
  store ptr %11, ptr %9, align 8, !tbaa !120
  call void @llvm.lifetime.start.p0(i64 8, ptr %10) #21
  %12 = load ptr, ptr %9, align 8, !tbaa !120
  %13 = getelementptr inbounds nuw %class.DynamicTree, ptr %12, i32 0, i32 4
  %14 = load ptr, ptr %13, align 8, !tbaa !131
  %15 = load i32, ptr %7, align 4, !tbaa !4
  %16 = sext i32 %15 to i64
  %17 = getelementptr inbounds %struct.Proxy, ptr %14, i64 %16
  store ptr %17, ptr %10, align 8, !tbaa !149
  %18 = load ptr, ptr %9, align 8, !tbaa !120
  %19 = getelementptr inbounds nuw %class.DynamicTree, ptr %18, i32 0, i32 9
  %20 = load i32, ptr %19, align 4, !tbaa !140
  %21 = load ptr, ptr %10, align 8, !tbaa !149
  %22 = getelementptr inbounds nuw %struct.Proxy, ptr %21, i32 0, i32 5
  store i32 %20, ptr %22, align 4, !tbaa !155
  %23 = load ptr, ptr %5, align 8, !tbaa !179
  %24 = getelementptr inbounds nuw %struct.b2RayCastInput, ptr %23, i32 0, i32 2
  %25 = load float, ptr %24, align 4, !tbaa !160
  call void @llvm.lifetime.end.p0(i64 8, ptr %10) #21
  call void @llvm.lifetime.end.p0(i64 8, ptr %9) #21
  ret float %25
}