; Function Attrs: mustprogress nofree norecurse nosync nounwind willreturn memory(write, argmem: readwrite, inaccessiblemem: none) uwtable
define internal noundef float @_ZL11RayCallbackPK14b2RayCastInputiiPv(ptr noundef readonly captures(none) %0, i32 %1, i32 noundef %2, ptr noundef readonly captures(none) %3) #15 {
  %5 = getelementptr inbounds nuw i8, ptr %3, i64 328
  %6 = load ptr, ptr %5, align 8, !tbaa !39
  %7 = sext i32 %2 to i64
  %8 = getelementptr inbounds nuw i8, ptr %3, i64 356
  %9 = load i32, ptr %8, align 4, !tbaa !48
  %10 = getelementptr inbounds %struct.Proxy, ptr %6, i64 %7, i32 5
  store i32 %9, ptr %10, align 4, !tbaa !157
  %11 = getelementptr inbounds nuw i8, ptr %0, i64 16
  %12 = load float, ptr %11, align 4, !tbaa !163
  ret float %12
}